target datalayout = "e-m:e-p270:32:32-p271:32:32-p272:64:64-i64:64-i128:128-f80:128-n8:16:32:64-S128"
target triple = "x86_64-pc-linux-gnu"

%struct.mbedtls_mpi = type { ptr, i16, i16 }

; Function Attrs: nounwind uwtable
define hidden i32 @mbedtls_mpi_core_get_mont_r2_unsafe(ptr noundef %0, ptr noundef %1) #0 {
  %3 = alloca ptr, align 8
  %4 = alloca ptr, align 8
  %5 = alloca i32, align 4
  store ptr %0, ptr %3, align 8, !tbaa !47
  store ptr %1, ptr %4, align 8, !tbaa !47
  call void @llvm.lifetime.start.p0(i64 4, ptr %5) #7
  store i32 -110, ptr %5, align 4, !tbaa !10
  br label %6

6:                                                ; preds = %2
  %7 = load ptr, ptr %3, align 8, !tbaa !47
  %8 = call i32 @mbedtls_mpi_lset(ptr noundef %7, i64 noundef 1)
  store i32 %8, ptr %5, align 4, !tbaa !10
  %9 = icmp ne i32 %8, 0
  br i1 %9, label %10, label %11

10:                                               ; preds = %6
  br label %51

11:                                               ; preds = %6
  br label %12

12:                                               ; preds = %11
  br label %13

13:                                               ; preds = %12
  br label %14

14:                                               ; preds = %13
  %15 = load ptr, ptr %3, align 8, !tbaa !47
  %16 = load ptr, ptr %4, align 8, !tbaa !47
  %17 = getelementptr inbounds nuw %struct.mbedtls_mpi, ptr %16, i32 0, i32 2
  %18 = load i16, ptr %17, align 2, !tbaa !49
  %19 = zext i16 %18 to i32
  %20 = mul nsw i32 %19, 2
  %21 = sext i32 %20 to i64
  %22 = mul i64 %21, 64
  %23 = call i32 @mbedtls_mpi_shift_l(ptr noundef %15, i64 noundef %22)
  store i32 %23, ptr %5, align 4, !tbaa !10
  %24 = icmp ne i32 %23, 0
  br i1 %24, label %25, label %26

25:                                               ; preds = %14
  br label %51

26:                                               ; preds = %14
  br label %27

27:                                               ; preds = %26
  br label %28

28:                                               ; preds = %27
  br label %29

29:                                               ; preds = %28
  %30 = load ptr, ptr %3, align 8, !tbaa !47
  %31 = load ptr, ptr %3, align 8, !tbaa !47
  %32 = load ptr, ptr %4, align 8, !tbaa !47
  %33 = call i32 @mbedtls_mpi_mod_mpi(ptr noundef %30, ptr noundef %31, ptr noundef %32)
  store i32 %33, ptr %5, align 4, !tbaa !10
  %34 = icmp ne i32 %33, 0
  br i1 %34, label %35, label %36

35:                                               ; preds = %29
  br label %51

36:                                               ; preds = %29
  br label %37

37:                                               ; preds = %36
  br label %38

38:                                               ; preds = %37
  br label %39

39:                                               ; preds = %38
  %40 = load ptr, ptr %3, align 8, !tbaa !47
  %41 = load ptr, ptr %4, align 8, !tbaa !47
  %42 = getelementptr inbounds nuw %struct.mbedtls_mpi, ptr %41, i32 0, i32 2
  %43 = load i16, ptr %42, align 2, !tbaa !49
  %44 = zext i16 %43 to i64
  %45 = call i32 @mbedtls_mpi_shrink(ptr noundef %40, i64 noundef %44)
  store i32 %45, ptr %5, align 4, !tbaa !10
  %46 = icmp ne i32 %45, 0
  br i1 %46, label %47, label %48

47:                                               ; preds = %39
  br label %51

48:                                               ; preds = %39
  br label %49

49:                                               ; preds = %48
  br label %50

50:                                               ; preds = %49
  br label %51

51:                                               ; preds = %50, %47, %35, %25, %10
  %52 = load i32, ptr %5, align 4, !tbaa !10
  call void @llvm.lifetime.end.p0(i64 4, ptr %5) #7
  ret i32 %52
}