; Function Attrs: nounwind uwtable
define hidden i32 @mbedtls_mpi_core_get_mont_r2_unsafe(ptr noundef %0, ptr noundef %1) local_unnamed_addr #5 {
  %3 = tail call i32 @mbedtls_mpi_lset(ptr noundef %0, i64 noundef 1) #10
  %.not = icmp eq i32 %3, 0
  br i1 %.not, label %4, label %16

4:                                                ; preds = %2
  %5 = getelementptr inbounds nuw i8, ptr %1, i64 10
  %6 = load i16, ptr %5, align 2, !tbaa !39
  %7 = zext i16 %6 to i64
  %8 = shl nuw nsw i64 %7, 7
  %9 = tail call i32 @mbedtls_mpi_shift_l(ptr noundef %0, i64 noundef %8) #10
  %.not11 = icmp eq i32 %9, 0
  br i1 %.not11, label %10, label %16

10:                                               ; preds = %4
  %11 = tail call i32 @mbedtls_mpi_mod_mpi(ptr noundef %0, ptr noundef %0, ptr noundef nonnull %1) #10
  %.not12 = icmp eq i32 %11, 0
  br i1 %.not12, label %12, label %16

12:                                               ; preds = %10
  %13 = load i16, ptr %5, align 2, !tbaa !39
  %14 = zext i16 %13 to i64
  %15 = tail call i32 @mbedtls_mpi_shrink(ptr noundef %0, i64 noundef %14) #10
  br label %16

16:                                               ; preds = %12, %10, %4, %2
  %.0 = phi i32 [ %3, %2 ], [ %9, %4 ], [ %11, %10 ], [ %15, %12 ]
  ret i32 %.0
}